-----BEGIN CERTIFICATE-----
MIIDyTCCArGgAwIBAgIEUzLUcTANBgkqhkiG9w0BAQsFADCBijEUMBIGA1UEBhML
UG9ydFN3aWdnZXIxFDASBgNVBAgTC1BvcnRTd2lnZ2VyMRQwEgYDVQQHEwtQb3J0
U3dpZ2dlcjEUMBIGA1UEChMLUG9ydFN3aWdnZXIxFzAVBgNVBAsTDlBvcnRTd2ln
Z2VyIENBMRcwFQYDVQQDEw5Qb3J0U3dpZ2dlciBDQTAeFw0xNDAzMjYxMzIxNTNa
Fw0yMzA2MDQxMjIxNTNaMIGKMRQwEgYDVQQGEwtQb3J0U3dpZ2dlcjEUMBIGA1UE
CBMLUG9ydFN3aWdnZXIxFDASBgNVBAcTC1BvcnRTd2lnZ2VyMRQwEgYDVQQKEwtQ
b3J0U3dpZ2dlcjEXMBUGA1UECxMOUG9ydFN3aWdnZXIgQ0ExFzAVBgNVBAMTDlBv
cnRTd2lnZ2VyIENBMIIBIjANBgkqhkiG9w0BAQEFAAOCAQ8AMIIBCgKCAQEAhi1s
r9yT0o7EMbyDlp9381A50bF1ReBObQQuy7TCxXI/z/kefHJoC4SndTEUoU+LvQPp
mbsLzjxQdguepADerNZSajWsaA9e7bz11JiD9fHjiTcaZLDD8+YlqXBZS3GvLJHJ
oHfUScHM8LzKIWx2rJnyjTW5MvH0Klhg3YOoGnAwguhQwcx/eBUb3h19ekYS814P
Vd+51jiBW/3IbkMzbb1fCz7MH5MWyH5mM/kRKoCQtVznONLrwA4olQTStowtZblH
c8HPvotEYGN+oSzwIXsLQdH4cFkKTOzcATmrIjAiXkvJxNhxBeC63eg9j2YhfDkr
/M0r1B1rA/mF9oICowIDAQABozUwMzASBgNVHRMBAf8ECDAGAQH/AgEAMB0GA1Ud
DgQWBBQzVdRkY2J64qI8DTEBrU2wdYeg5DANBgkqhkiG9w0BAQsFAAOCAQEAYKme
MFnOeMfHDzq6M4ba7jb46aa9Xwd/0uVYE6pc4sY35B2Udt2Lpr2eoJG3XDsik4nW
tksBvYQZxnFwb+lQrGQrtjCHMwpnAZq8/vCtVdfL/8Cw3dHCeoSibfZvA3qP+2Ig
TtfczzbXb++Fb33J7kax4gl9YRHypj0eQADVHEhKFHZdiWR+8iKKXfmZ+lcBkuJB
WmGAGJLPgY5Nj+RcmJZeOpzLXKDiic8bIdWb061jNrB4dhy32TD0kwQpMhkga/07
LrMUklO/h+OZbMbNL7n/dlr27YLl5oY1PW1e0+g//GZmU+tDzEuZWRXsEw4v6Y7z
Y2E5Gl4zRSz8DiofWg==
-----END CERTIFICATE-----
Certificate:
    Data:
        Version: 3 (0x2)
        Serial Number: 1395840113 (0x5332d471)
        Signature Algorithm: sha256WithRSAEncryption
        Issuer: C = PortSwigger, ST = PortSwigger, L = PortSwigger, O = PortSwigger, OU = PortSwigger CA, CN = PortSwigger CA
        Validity
            Not Before: Mar 26 13:21:53 2014 GMT
            Not After : Jun  4 12:21:53 2023 GMT
        Subject: C = PortSwigger, ST = PortSwigger, L = PortSwigger, O = PortSwigger, OU = PortSwigger CA, CN = PortSwigger CA
        Subject Public Key Info:
            Public Key Algorithm: rsaEncryption
                RSA Public-Key: (2048 bit)
                Modulus:
                    00:86:2d:6c:af:dc:93:d2:8e:c4:31:bc:83:96:9f:
                    77:f3:50:39:d1:b1:75:45:e0:4e:6d:04:2e:cb:b4:
                    c2:c5:72:3f:cf:f9:1e:7c:72:68:0b:84:a7:75:31:
                    14:a1:4f:8b:bd:03:e9:99:bb:0b:ce:3c:50:76:0b:
                    9e:a4:00:de:ac:d6:52:6a:35:ac:68:0f:5e:ed:bc:
                    f5:d4:98:83:f5:f1:e3:89:37:1a:64:b0:c3:f3:e6:
                    25:a9:70:59:4b:71:af:2c:91:c9:a0:77:d4:49:c1:
                    cc:f0:bc:ca:21:6c:76:ac:99:f2:8d:35:b9:32:f1:
                    f4:2a:58:60:dd:83:a8:1a:70:30:82:e8:50:c1:cc:
                    7f:78:15:1b:de:1d:7d:7a:46:12:f3:5e:0f:55:df:
                    b9:d6:38:81:5b:fd:c8:6e:43:33:6d:bd:5f:0b:3e:
                    cc:1f:93:16:c8:7e:66:33:f9:11:2a:80:90:b5:5c:
                    e7:38:d2:eb:c0:0e:28:95:04:d2:b6:8c:2d:65:b9:
                    47:73:c1:cf:be:8b:44:60:63:7e:a1:2c:f0:21:7b:
                    0b:41:d1:f8:70:59:0a:4c:ec:dc:01:39:ab:22:30:
                    22:5e:4b:c9:c4:d8:71:05:e0:ba:dd:e8:3d:8f:66:
                    21:7c:39:2b:fc:cd:2b:d4:1d:6b:03:f9:85:f6:82:
                    02:a3
                Exponent: 65537 (0x10001)
        X509v3 extensions:
            X509v3 Basic Constraints: critical
                CA:TRUE, pathlen:0
            X509v3 Subject Key Identifier: 
                33:55:D4:64:63:62:7A:E2:A2:3C:0D:31:01:AD:4D:B0:75:87:A0:E4
    Signature Algorithm: sha256WithRSAEncryption
         60:a9:9e:30:59:ce:78:c7:c7:0f:3a:ba:33:86:da:ee:36:f8:
         e9:a6:bd:5f:07:7f:d2:e5:58:13:aa:5c:e2:c6:37:e4:1d:94:
         76:dd:8b:a6:bd:9e:a0:91:b7:5c:3b:22:93:89:d6:b6:4b:01:
         bd:84:19:c6:71:70:6f:e9:50:ac:64:2b:b6:30:87:33:0a:67:
         01:9a:bc:fe:f0:ad:55:d7:cb:ff:c0:b0:dd:d1:c2:7a:84:a2:
         6d:f6:6f:03:7a:8f:fb:62:20:4e:d7:dc:cf:36:d7:6f:ef:85:
         6f:7d:c9:ee:46:b1:e2:09:7d:61:11:f2:a6:3d:1e:40:00:d5:
         1c:48:4a:14:76:5d:89:64:7e:f2:22:8a:5d:f9:99:fa:57:01:
         92:e2:41:5a:61:80:18:92:cf:81:8e:4d:8f:e4:5c:98:96:5e:
         3a:9c:cb:5c:a0:e2:89:cf:1b:21:d5:9b:d3:ad:63:36:b0:78:
         76:1c:b7:d9:30:f4:93:04:29:32:19:20:6b:fd:3b:2e:b3:14:
         92:53:bf:87:e3:99:6c:c6:cd:2f:b9:ff:76:5a:f6:ed:82:e5:
         e6:86:35:3d:6d:5e:d3:e8:3f:fc:66:66:53:eb:43:cc:4b:99:
         59:15:ec:13:0e:2f:e9:8e:f3:63:61:39:1a:5e:33:45:2c:fc:
         0e:2a:1f:5a
SHA1 Fingerprint=CD:9C:8E:11:C8:13:50:BA:5C:B1:18:26:E8:94:73:DE:7D:81:AD:31

